; Function Attrs: mustprogress uwtable
define void @_ZN2cv3dnn14dnn4_v2024122313PriorBoxLayer6createERKNS1_11LayerParamsE(ptr dead_on_unwind noalias writable writeonly sret(%"struct.cv::Ptr") align 8 captures(none) %0, ptr noundef nonnull align 8 dereferenceable(136) %1) local_unnamed_addr #4 align 2 personality ptr @__gxx_personality_v0 {
  %3 = tail call noalias noundef nonnull dereferenceable(320) ptr @_Znwm(i64 noundef 320) #24
  invoke void @_ZN2cv3dnn17PriorBoxLayerImplC2ERKNS0_14dnn4_v2024122311LayerParamsE(ptr noundef nonnull align 8 dereferenceable(320) %3, ptr noundef nonnull align 8 dereferenceable(136) %1)
          to label %4 unwind label %20

4:                                                ; preds = %2
  store ptr %3, ptr %0, align 8, !tbaa !3
  %5 = getelementptr inbounds nuw i8, ptr %0, i64 8
  store ptr null, ptr %5, align 8, !tbaa !11
  %6 = invoke noalias noundef nonnull dereferenceable(24) ptr @_Znwm(i64 noundef 24) #24
          to label %_ZNSt14__shared_countILN9__gnu_cxx12_Lock_policyE2EEC2IPN2cv3dnn17PriorBoxLayerImplEEET_.exit unwind label %7

7:                                                ; preds = %4
  %8 = landingpad { ptr, i32 }
          catch ptr null
  %9 = extractvalue { ptr, i32 } %8, 0
  %10 = tail call ptr @__cxa_begin_catch(ptr %9) #25
  tail call void @_ZN2cv3dnn17PriorBoxLayerImplD2Ev(ptr noundef nonnull align 8 dereferenceable(320) %3) #25
  tail call void @_ZdlPv(ptr noundef nonnull %3) #26
  invoke void @__cxa_rethrow() #27
          to label %16 unwind label %11

11:                                               ; preds = %7
  %12 = landingpad { ptr, i32 }
          cleanup
  invoke void @__cxa_end_catch()
          to label %common.resume unwind label %13

common.resume:                                    ; preds = %11, %20
  %common.resume.op = phi { ptr, i32 } [ %21, %20 ], [ %12, %11 ]
  resume { ptr, i32 } %common.resume.op

13:                                               ; preds = %11
  %14 = landingpad { ptr, i32 }
          catch ptr null
  %15 = extractvalue { ptr, i32 } %14, 0
  tail call void @__clang_call_terminate(ptr %15) #28
  unreachable

16:                                               ; preds = %7
  unreachable

_ZNSt14__shared_countILN9__gnu_cxx12_Lock_policyE2EEC2IPN2cv3dnn17PriorBoxLayerImplEEET_.exit: ; preds = %4
  %17 = getelementptr inbounds nuw i8, ptr %6, i64 8
  store i32 1, ptr %17, align 8, !tbaa !12
  %18 = getelementptr inbounds nuw i8, ptr %6, i64 12
  store i32 1, ptr %18, align 4, !tbaa !15
  store ptr getelementptr inbounds nuw inrange(-16, 40) (i8, ptr @_ZTVSt15_Sp_counted_ptrIPN2cv3dnn17PriorBoxLayerImplELN9__gnu_cxx12_Lock_policyE2EE, i64 16), ptr %6, align 8, !tbaa !16
  %19 = getelementptr inbounds nuw i8, ptr %6, i64 16
  store ptr %3, ptr %19, align 8, !tbaa !18
  store ptr %6, ptr %5, align 8, !tbaa !11
  ret void

20:                                               ; preds = %2
  %21 = landingpad { ptr, i32 }
          cleanup
  tail call void @_ZdlPv(ptr noundef nonnull %3) #26
  br label %common.resume
}